target datalayout = "e-m:e-p270:32:32-p271:32:32-p272:64:64-i64:64-i128:128-f80:128-n8:16:32:64-S128"
target triple = "x86_64-pc-linux-gnu"

%struct.compression_type = type { i32, ptr, ptr, ptr, i8 }

; Function Attrs: null_pointer_is_valid sspstrong uwtable
define ptr @wtap_get_all_compression_type_extensions_list() #0 {
  %1 = alloca ptr, align 8
  %2 = alloca ptr, align 8
  call void @llvm.lifetime.start.p0(i64 8, ptr %1) #14
  store ptr null, ptr %1, align 8
  call void @llvm.lifetime.start.p0(i64 8, ptr %2) #14
  store ptr @compression_types, ptr %2, align 8
  br label %3

3:                                                ; preds = %15, %0
  %4 = load ptr, ptr %2, align 8
  %5 = getelementptr inbounds nuw %struct.compression_type, ptr %4, i32 0, i32 0
  %6 = load i32, ptr %5, align 8
  %7 = icmp ne i32 %6, 0
  br i1 %7, label %9, label %8

8:                                                ; preds = %3
  call void @llvm.lifetime.end.p0(i64 8, ptr %2) #14
  br label %18

9:                                                ; preds = %3
  %10 = load ptr, ptr %1, align 8
  %11 = load ptr, ptr %2, align 8
  %12 = getelementptr inbounds nuw %struct.compression_type, ptr %11, i32 0, i32 1
  %13 = load ptr, ptr %12, align 8
  %14 = call ptr @g_slist_prepend(ptr noundef %10, ptr noundef %13)
  store ptr %14, ptr %1, align 8
  br label %15

15:                                               ; preds = %9
  %16 = load ptr, ptr %2, align 8
  %17 = getelementptr %struct.compression_type, ptr %16, i32 1
  store ptr %17, ptr %2, align 8
  br label %3, !llvm.loop !15

18:                                               ; preds = %8
  %19 = load ptr, ptr %1, align 8
  call void @llvm.lifetime.end.p0(i64 8, ptr %1) #14
  ret ptr %19
}