; Function Attrs: null_pointer_is_valid sspstrong uwtable
define ptr @wtap_get_all_compression_type_extensions_list() local_unnamed_addr #0 {
  br label %2

1:                                                ; preds = %2
  ret ptr %5

2:                                                ; preds = %0, %2
  %.07 = phi ptr [ @compression_types, %0 ], [ %6, %2 ]
  %.056 = phi ptr [ null, %0 ], [ %5, %2 ]
  %3 = getelementptr inbounds nuw i8, ptr %.07, i64 8
  %4 = load ptr, ptr %3, align 8
  %5 = tail call ptr @g_slist_prepend(ptr noundef %.056, ptr noundef %4)
  %6 = getelementptr i8, ptr %.07, i64 40
  %7 = load i32, ptr %6, align 8
  %.not = icmp eq i32 %7, 0
  br i1 %.not, label %1, label %2, !llvm.loop !15
}